; Function Attrs: mustprogress nofree norecurse nosync nounwind willreturn memory(argmem: read) uwtable
define noundef i32 @_Z7cvRoundRKN2cv9softfloatE(ptr nocapture noundef nonnull readonly align 4 dereferenceable(4) %0) local_unnamed_addr #4 {
  %2 = load i32, ptr %0, align 4
  %3 = zext i32 %2 to i64
  %4 = icmp slt i32 %2, 0
  %5 = lshr i64 %3, 23
  %6 = and i64 %5, 255
  %7 = and i64 %3, 8388607
  %8 = icmp ne i64 %6, 255
  %9 = icmp eq i64 %7, 0
  %or.cond.not.i = or i1 %9, %8
  %spec.select.i = and i1 %4, %or.cond.not.i
  %.not.i = icmp eq i64 %6, 0
  %10 = shl nuw nsw i64 %7, 32
  %11 = or disjoint i64 %10, 36028797018963968
  %12 = select i1 %.not.i, i64 %10, i64 %11
  %13 = icmp ult i64 %6, 170
  br i1 %13, label %14, label %_ZN2cvL25softfloat_shiftRightJam64Emm.exit.i

14:                                               ; preds = %1
  %15 = icmp ugt i64 %6, 107
  br i1 %15, label %16, label %_ZN2cvL25softfloat_shiftRightJam64Emm.exit.i.thread

16:                                               ; preds = %14
  %.neg.i = add nuw nsw i64 %5, 22
  %17 = sub nuw nsw i64 170, %6
  %18 = lshr i64 %11, %17
  %19 = and i64 %.neg.i, 63
  %20 = shl i64 %11, %19
  %21 = icmp ne i64 %20, 0
  %22 = zext i1 %21 to i64
  %23 = or i64 %18, %22
  br label %_ZN2cvL25softfloat_shiftRightJam64Emm.exit.i

_ZN2cvL25softfloat_shiftRightJam64Emm.exit.i.thread: ; preds = %14
  %24 = icmp ne i64 %12, 0
  %25 = zext i1 %24 to i64
  br label %26

_ZN2cvL25softfloat_shiftRightJam64Emm.exit.i:     ; preds = %16, %1
  %.017.i = phi i64 [ %12, %1 ], [ %23, %16 ]
  %.not.i.i = icmp ult i64 %.017.i, 17592186042368
  br i1 %.not.i.i, label %26, label %37

26:                                               ; preds = %_ZN2cvL25softfloat_shiftRightJam64Emm.exit.i.thread, %_ZN2cvL25softfloat_shiftRightJam64Emm.exit.i
  %.017.i3 = phi i64 [ %25, %_ZN2cvL25softfloat_shiftRightJam64Emm.exit.i.thread ], [ %.017.i, %_ZN2cvL25softfloat_shiftRightJam64Emm.exit.i ]
  %27 = add nuw nsw i64 %.017.i3, 2048
  %28 = and i64 %.017.i3, 4095
  %29 = lshr i64 %27, 12
  %.not31.i.i = icmp eq i64 %28, 2048
  %30 = zext i1 %.not31.i.i to i64
  %31 = xor i64 %30, -1
  %32 = and i64 %29, %31
  %33 = sub nsw i64 0, %32
  %34 = select i1 %spec.select.i, i64 %33, i64 %32
  %sext.i.i = shl i64 %34, 32
  %35 = ashr exact i64 %sext.i.i, 32
  %.not32.i.i = icmp eq i64 %sext.i.i, 0
  %36 = icmp sgt i64 %35, -1
  %.not3334.i.i = xor i1 %spec.select.i, %36
  %or.cond.i.i = select i1 %.not32.i.i, i1 true, i1 %.not3334.i.i
  br i1 %or.cond.i.i, label %_ZN2cvL10f32_to_i32ENS_9softfloatEhb.exit, label %37

37:                                               ; preds = %26, %_ZN2cvL25softfloat_shiftRightJam64Emm.exit.i
  %38 = select i1 %spec.select.i, i64 -2147483648, i64 2147483647
  br label %_ZN2cvL10f32_to_i32ENS_9softfloatEhb.exit

_ZN2cvL10f32_to_i32ENS_9softfloatEhb.exit:        ; preds = %26, %37
  %.0.i.i = phi i64 [ %38, %37 ], [ %35, %26 ]
  %39 = trunc nsw i64 %.0.i.i to i32
  ret i32 %39
}